target datalayout = "e-m:e-p270:32:32-p271:32:32-p272:64:64-i64:64-i128:128-f80:128-n8:16:32:64-S128"
target triple = "x86_64-pc-linux-gnu"

%"struct.lodepng::LodePNGICCCurve" = type { i32, ptr, i64, float, float, float, float, float, float, float }

; Function Attrs: mustprogress uwtable
define internal noundef float @_ZN7lodepngL13iccForwardTRCEPKNS_15LodePNGICCCurveEf(ptr noundef %0, float noundef %1) #0 {
  %3 = alloca float, align 4
  %4 = alloca ptr, align 8
  %5 = alloca float, align 4
  %6 = alloca float, align 4
  %7 = alloca float, align 4
  %8 = alloca float, align 4
  %9 = alloca i64, align 8
  %10 = alloca i32, align 4
  store ptr %0, ptr %4, align 8, !tbaa !81
  store float %1, ptr %5, align 4, !tbaa !100
  %11 = load ptr, ptr %4, align 8, !tbaa !81
  %12 = getelementptr inbounds nuw %"struct.lodepng::LodePNGICCCurve", ptr %11, i32 0, i32 0
  %13 = load i32, ptr %12, align 8, !tbaa !107
  %14 = icmp eq i32 %13, 0
  br i1 %14, label %15, label %17

15:                                               ; preds = %2
  %16 = load float, ptr %5, align 4, !tbaa !100
  store float %16, ptr %3, align 4
  br label %266

17:                                               ; preds = %2
  %18 = load ptr, ptr %4, align 8, !tbaa !81
  %19 = getelementptr inbounds nuw %"struct.lodepng::LodePNGICCCurve", ptr %18, i32 0, i32 0
  %20 = load i32, ptr %19, align 8, !tbaa !107
  %21 = icmp eq i32 %20, 1
  br i1 %21, label %22, label %91

22:                                               ; preds = %17
  call void @llvm.lifetime.start.p0(i64 4, ptr %6) #19
  call void @llvm.lifetime.start.p0(i64 4, ptr %7) #19
  call void @llvm.lifetime.start.p0(i64 4, ptr %8) #19
  call void @llvm.lifetime.start.p0(i64 8, ptr %9) #19
  %23 = load ptr, ptr %4, align 8, !tbaa !81
  %24 = getelementptr inbounds nuw %"struct.lodepng::LodePNGICCCurve", ptr %23, i32 0, i32 1
  %25 = load ptr, ptr %24, align 8, !tbaa !82
  %26 = icmp ne ptr %25, null
  br i1 %26, label %28, label %27

27:                                               ; preds = %22
  store float 0.000000e+00, ptr %3, align 4
  store i32 1, ptr %10, align 4
  br label %90

28:                                               ; preds = %22
  %29 = load float, ptr %5, align 4, !tbaa !100
  %30 = fcmp olt float %29, 0.000000e+00
  br i1 %30, label %31, label %33

31:                                               ; preds = %28
  %32 = load float, ptr %5, align 4, !tbaa !100
  store float %32, ptr %3, align 4
  store i32 1, ptr %10, align 4
  br label %90

33:                                               ; preds = %28
  %34 = load float, ptr %5, align 4, !tbaa !100
  %35 = load ptr, ptr %4, align 8, !tbaa !81
  %36 = getelementptr inbounds nuw %"struct.lodepng::LodePNGICCCurve", ptr %35, i32 0, i32 2
  %37 = load i64, ptr %36, align 8, !tbaa !86
  %38 = sub i64 %37, 1
  %39 = uitofp i64 %38 to float
  %40 = fmul float %34, %39
  %41 = fptoui float %40 to i64
  store i64 %41, ptr %9, align 8, !tbaa !15
  %42 = load i64, ptr %9, align 8, !tbaa !15
  %43 = load ptr, ptr %4, align 8, !tbaa !81
  %44 = getelementptr inbounds nuw %"struct.lodepng::LodePNGICCCurve", ptr %43, i32 0, i32 2
  %45 = load i64, ptr %44, align 8, !tbaa !86
  %46 = icmp uge i64 %42, %45
  br i1 %46, label %47, label %49

47:                                               ; preds = %33
  %48 = load float, ptr %5, align 4, !tbaa !100
  store float %48, ptr %3, align 4
  store i32 1, ptr %10, align 4
  br label %90

49:                                               ; preds = %33
  %50 = load ptr, ptr %4, align 8, !tbaa !81
  %51 = getelementptr inbounds nuw %"struct.lodepng::LodePNGICCCurve", ptr %50, i32 0, i32 1
  %52 = load ptr, ptr %51, align 8, !tbaa !82
  %53 = load i64, ptr %9, align 8, !tbaa !15
  %54 = getelementptr inbounds nuw float, ptr %52, i64 %53
  %55 = load float, ptr %54, align 4, !tbaa !100
  store float %55, ptr %6, align 4, !tbaa !100
  %56 = load i64, ptr %9, align 8, !tbaa !15
  %57 = add i64 %56, 1
  %58 = load ptr, ptr %4, align 8, !tbaa !81
  %59 = getelementptr inbounds nuw %"struct.lodepng::LodePNGICCCurve", ptr %58, i32 0, i32 2
  %60 = load i64, ptr %59, align 8, !tbaa !86
  %61 = icmp ult i64 %57, %60
  br i1 %61, label %62, label %70

62:                                               ; preds = %49
  %63 = load ptr, ptr %4, align 8, !tbaa !81
  %64 = getelementptr inbounds nuw %"struct.lodepng::LodePNGICCCurve", ptr %63, i32 0, i32 1
  %65 = load ptr, ptr %64, align 8, !tbaa !82
  %66 = load i64, ptr %9, align 8, !tbaa !15
  %67 = add i64 %66, 1
  %68 = getelementptr inbounds nuw float, ptr %65, i64 %67
  %69 = load float, ptr %68, align 4, !tbaa !100
  br label %71

70:                                               ; preds = %49
  br label %71

71:                                               ; preds = %70, %62
  %72 = phi float [ %69, %62 ], [ 1.000000e+00, %70 ]
  store float %72, ptr %7, align 4, !tbaa !100
  %73 = load float, ptr %5, align 4, !tbaa !100
  %74 = load ptr, ptr %4, align 8, !tbaa !81
  %75 = getelementptr inbounds nuw %"struct.lodepng::LodePNGICCCurve", ptr %74, i32 0, i32 2
  %76 = load i64, ptr %75, align 8, !tbaa !86
  %77 = sub i64 %76, 1
  %78 = uitofp i64 %77 to float
  %79 = load i64, ptr %9, align 8, !tbaa !15
  %80 = uitofp i64 %79 to float
  %81 = fneg float %80
  %82 = call float @llvm.fmuladd.f32(float %73, float %78, float %81)
  store float %82, ptr %8, align 4, !tbaa !100
  %83 = load float, ptr %6, align 4, !tbaa !100
  %84 = load float, ptr %8, align 4, !tbaa !100
  %85 = fsub float 1.000000e+00, %84
  %86 = load float, ptr %7, align 4, !tbaa !100
  %87 = load float, ptr %8, align 4, !tbaa !100
  %88 = fmul float %86, %87
  %89 = call float @llvm.fmuladd.f32(float %83, float %85, float %88)
  store float %89, ptr %3, align 4
  store i32 1, ptr %10, align 4
  br label %90

90:                                               ; preds = %71, %47, %31, %27
  call void @llvm.lifetime.end.p0(i64 8, ptr %9) #19
  call void @llvm.lifetime.end.p0(i64 4, ptr %8) #19
  call void @llvm.lifetime.end.p0(i64 4, ptr %7) #19
  call void @llvm.lifetime.end.p0(i64 4, ptr %6) #19
  br label %266

91:                                               ; preds = %17
  %92 = load ptr, ptr %4, align 8, !tbaa !81
  %93 = getelementptr inbounds nuw %"struct.lodepng::LodePNGICCCurve", ptr %92, i32 0, i32 0
  %94 = load i32, ptr %93, align 8, !tbaa !107
  %95 = icmp eq i32 %94, 2
  br i1 %95, label %96, label %109

96:                                               ; preds = %91
  %97 = load float, ptr %5, align 4, !tbaa !100
  %98 = fcmp ogt float %97, 0.000000e+00
  br i1 %98, label %99, label %105

99:                                               ; preds = %96
  %100 = load float, ptr %5, align 4, !tbaa !100
  %101 = load ptr, ptr %4, align 8, !tbaa !81
  %102 = getelementptr inbounds nuw %"struct.lodepng::LodePNGICCCurve", ptr %101, i32 0, i32 3
  %103 = load float, ptr %102, align 8, !tbaa !112
  %104 = call noundef float @_ZN7lodepngL12lodepng_powfEff(float noundef %100, float noundef %103)
  br label %107

105:                                              ; preds = %96
  %106 = load float, ptr %5, align 4, !tbaa !100
  br label %107

107:                                              ; preds = %105, %99
  %108 = phi float [ %104, %99 ], [ %106, %105 ]
  store float %108, ptr %3, align 4
  br label %266

109:                                              ; preds = %91
  %110 = load ptr, ptr %4, align 8, !tbaa !81
  %111 = getelementptr inbounds nuw %"struct.lodepng::LodePNGICCCurve", ptr %110, i32 0, i32 0
  %112 = load i32, ptr %111, align 8, !tbaa !107
  %113 = icmp eq i32 %112, 3
  br i1 %113, label %114, label %150

114:                                              ; preds = %109
  %115 = load float, ptr %5, align 4, !tbaa !100
  %116 = fcmp olt float %115, 0.000000e+00
  br i1 %116, label %117, label %119

117:                                              ; preds = %114
  %118 = load float, ptr %5, align 4, !tbaa !100
  store float %118, ptr %3, align 4
  br label %266

119:                                              ; preds = %114
  %120 = load float, ptr %5, align 4, !tbaa !100
  %121 = load ptr, ptr %4, align 8, !tbaa !81
  %122 = getelementptr inbounds nuw %"struct.lodepng::LodePNGICCCurve", ptr %121, i32 0, i32 5
  %123 = load float, ptr %122, align 8, !tbaa !115
  %124 = fneg float %123
  %125 = load ptr, ptr %4, align 8, !tbaa !81
  %126 = getelementptr inbounds nuw %"struct.lodepng::LodePNGICCCurve", ptr %125, i32 0, i32 4
  %127 = load float, ptr %126, align 4, !tbaa !114
  %128 = fdiv float %124, %127
  %129 = fcmp oge float %120, %128
  br i1 %129, label %130, label %147

130:                                              ; preds = %119
  %131 = load ptr, ptr %4, align 8, !tbaa !81
  %132 = getelementptr inbounds nuw %"struct.lodepng::LodePNGICCCurve", ptr %131, i32 0, i32 4
  %133 = load float, ptr %132, align 4, !tbaa !114
  %134 = load float, ptr %5, align 4, !tbaa !100
  %135 = load ptr, ptr %4, align 8, !tbaa !81
  %136 = getelementptr inbounds nuw %"struct.lodepng::LodePNGICCCurve", ptr %135, i32 0, i32 5
  %137 = load float, ptr %136, align 8, !tbaa !115
  %138 = call float @llvm.fmuladd.f32(float %133, float %134, float %137)
  %139 = load ptr, ptr %4, align 8, !tbaa !81
  %140 = getelementptr inbounds nuw %"struct.lodepng::LodePNGICCCurve", ptr %139, i32 0, i32 3
  %141 = load float, ptr %140, align 8, !tbaa !112
  %142 = call noundef float @_ZN7lodepngL12lodepng_powfEff(float noundef %138, float noundef %141)
  %143 = load ptr, ptr %4, align 8, !tbaa !81
  %144 = getelementptr inbounds nuw %"struct.lodepng::LodePNGICCCurve", ptr %143, i32 0, i32 6
  %145 = load float, ptr %144, align 4, !tbaa !116
  %146 = fadd float %142, %145
  br label %148

147:                                              ; preds = %119
  br label %148

148:                                              ; preds = %147, %130
  %149 = phi float [ %146, %130 ], [ 0.000000e+00, %147 ]
  store float %149, ptr %3, align 4
  br label %266

150:                                              ; preds = %109
  %151 = load ptr, ptr %4, align 8, !tbaa !81
  %152 = getelementptr inbounds nuw %"struct.lodepng::LodePNGICCCurve", ptr %151, i32 0, i32 0
  %153 = load i32, ptr %152, align 8, !tbaa !107
  %154 = icmp eq i32 %153, 4
  br i1 %154, label %155, label %194

155:                                              ; preds = %150
  %156 = load float, ptr %5, align 4, !tbaa !100
  %157 = fcmp olt float %156, 0.000000e+00
  br i1 %157, label %158, label %160

158:                                              ; preds = %155
  %159 = load float, ptr %5, align 4, !tbaa !100
  store float %159, ptr %3, align 4
  br label %266

160:                                              ; preds = %155
  %161 = load float, ptr %5, align 4, !tbaa !100
  %162 = load ptr, ptr %4, align 8, !tbaa !81
  %163 = getelementptr inbounds nuw %"struct.lodepng::LodePNGICCCurve", ptr %162, i32 0, i32 5
  %164 = load float, ptr %163, align 8, !tbaa !115
  %165 = fneg float %164
  %166 = load ptr, ptr %4, align 8, !tbaa !81
  %167 = getelementptr inbounds nuw %"struct.lodepng::LodePNGICCCurve", ptr %166, i32 0, i32 4
  %168 = load float, ptr %167, align 4, !tbaa !114
  %169 = fdiv float %165, %168
  %170 = fcmp oge float %161, %169
  br i1 %170, label %171, label %188

171:                                              ; preds = %160
  %172 = load ptr, ptr %4, align 8, !tbaa !81
  %173 = getelementptr inbounds nuw %"struct.lodepng::LodePNGICCCurve", ptr %172, i32 0, i32 4
  %174 = load float, ptr %173, align 4, !tbaa !114
  %175 = load float, ptr %5, align 4, !tbaa !100
  %176 = load ptr, ptr %4, align 8, !tbaa !81
  %177 = getelementptr inbounds nuw %"struct.lodepng::LodePNGICCCurve", ptr %176, i32 0, i32 5
  %178 = load float, ptr %177, align 8, !tbaa !115
  %179 = call float @llvm.fmuladd.f32(float %174, float %175, float %178)
  %180 = load ptr, ptr %4, align 8, !tbaa !81
  %181 = getelementptr inbounds nuw %"struct.lodepng::LodePNGICCCurve", ptr %180, i32 0, i32 3
  %182 = load float, ptr %181, align 8, !tbaa !112
  %183 = call noundef float @_ZN7lodepngL12lodepng_powfEff(float noundef %179, float noundef %182)
  %184 = load ptr, ptr %4, align 8, !tbaa !81
  %185 = getelementptr inbounds nuw %"struct.lodepng::LodePNGICCCurve", ptr %184, i32 0, i32 6
  %186 = load float, ptr %185, align 4, !tbaa !116
  %187 = fadd float %183, %186
  br label %192

188:                                              ; preds = %160
  %189 = load ptr, ptr %4, align 8, !tbaa !81
  %190 = getelementptr inbounds nuw %"struct.lodepng::LodePNGICCCurve", ptr %189, i32 0, i32 6
  %191 = load float, ptr %190, align 4, !tbaa !116
  br label %192

192:                                              ; preds = %188, %171
  %193 = phi float [ %187, %171 ], [ %191, %188 ]
  store float %193, ptr %3, align 4
  br label %266

194:                                              ; preds = %150
  %195 = load ptr, ptr %4, align 8, !tbaa !81
  %196 = getelementptr inbounds nuw %"struct.lodepng::LodePNGICCCurve", ptr %195, i32 0, i32 0
  %197 = load i32, ptr %196, align 8, !tbaa !107
  %198 = icmp eq i32 %197, 5
  br i1 %198, label %199, label %226

199:                                              ; preds = %194
  %200 = load float, ptr %5, align 4, !tbaa !100
  %201 = load ptr, ptr %4, align 8, !tbaa !81
  %202 = getelementptr inbounds nuw %"struct.lodepng::LodePNGICCCurve", ptr %201, i32 0, i32 7
  %203 = load float, ptr %202, align 8, !tbaa !117
  %204 = fcmp oge float %200, %203
  br i1 %204, label %205, label %218

205:                                              ; preds = %199
  %206 = load ptr, ptr %4, align 8, !tbaa !81
  %207 = getelementptr inbounds nuw %"struct.lodepng::LodePNGICCCurve", ptr %206, i32 0, i32 4
  %208 = load float, ptr %207, align 4, !tbaa !114
  %209 = load float, ptr %5, align 4, !tbaa !100
  %210 = load ptr, ptr %4, align 8, !tbaa !81
  %211 = getelementptr inbounds nuw %"struct.lodepng::LodePNGICCCurve", ptr %210, i32 0, i32 5
  %212 = load float, ptr %211, align 8, !tbaa !115
  %213 = call float @llvm.fmuladd.f32(float %208, float %209, float %212)
  %214 = load ptr, ptr %4, align 8, !tbaa !81
  %215 = getelementptr inbounds nuw %"struct.lodepng::LodePNGICCCurve", ptr %214, i32 0, i32 3
  %216 = load float, ptr %215, align 8, !tbaa !112
  %217 = call noundef float @_ZN7lodepngL12lodepng_powfEff(float noundef %213, float noundef %216)
  br label %224

218:                                              ; preds = %199
  %219 = load ptr, ptr %4, align 8, !tbaa !81
  %220 = getelementptr inbounds nuw %"struct.lodepng::LodePNGICCCurve", ptr %219, i32 0, i32 6
  %221 = load float, ptr %220, align 4, !tbaa !116
  %222 = load float, ptr %5, align 4, !tbaa !100
  %223 = fmul float %221, %222
  br label %224

224:                                              ; preds = %218, %205
  %225 = phi float [ %217, %205 ], [ %223, %218 ]
  store float %225, ptr %3, align 4
  br label %266

226:                                              ; preds = %194
  %227 = load ptr, ptr %4, align 8, !tbaa !81
  %228 = getelementptr inbounds nuw %"struct.lodepng::LodePNGICCCurve", ptr %227, i32 0, i32 0
  %229 = load i32, ptr %228, align 8, !tbaa !107
  %230 = icmp eq i32 %229, 6
  br i1 %230, label %231, label %265

231:                                              ; preds = %226
  %232 = load float, ptr %5, align 4, !tbaa !100
  %233 = load ptr, ptr %4, align 8, !tbaa !81
  %234 = getelementptr inbounds nuw %"struct.lodepng::LodePNGICCCurve", ptr %233, i32 0, i32 7
  %235 = load float, ptr %234, align 8, !tbaa !117
  %236 = fcmp oge float %232, %235
  br i1 %236, label %237, label %254

237:                                              ; preds = %231
  %238 = load ptr, ptr %4, align 8, !tbaa !81
  %239 = getelementptr inbounds nuw %"struct.lodepng::LodePNGICCCurve", ptr %238, i32 0, i32 4
  %240 = load float, ptr %239, align 4, !tbaa !114
  %241 = load float, ptr %5, align 4, !tbaa !100
  %242 = load ptr, ptr %4, align 8, !tbaa !81
  %243 = getelementptr inbounds nuw %"struct.lodepng::LodePNGICCCurve", ptr %242, i32 0, i32 5
  %244 = load float, ptr %243, align 8, !tbaa !115
  %245 = call float @llvm.fmuladd.f32(float %240, float %241, float %244)
  %246 = load ptr, ptr %4, align 8, !tbaa !81
  %247 = getelementptr inbounds nuw %"struct.lodepng::LodePNGICCCurve", ptr %246, i32 0, i32 3
  %248 = load float, ptr %247, align 8, !tbaa !112
  %249 = call noundef float @_ZN7lodepngL12lodepng_powfEff(float noundef %245, float noundef %248)
  %250 = load ptr, ptr %4, align 8, !tbaa !81
  %251 = getelementptr inbounds nuw %"struct.lodepng::LodePNGICCCurve", ptr %250, i32 0, i32 6
  %252 = load float, ptr %251, align 4, !tbaa !116
  %253 = fadd float %249, %252
  br label %263

254:                                              ; preds = %231
  %255 = load ptr, ptr %4, align 8, !tbaa !81
  %256 = getelementptr inbounds nuw %"struct.lodepng::LodePNGICCCurve", ptr %255, i32 0, i32 6
  %257 = load float, ptr %256, align 4, !tbaa !116
  %258 = load float, ptr %5, align 4, !tbaa !100
  %259 = load ptr, ptr %4, align 8, !tbaa !81
  %260 = getelementptr inbounds nuw %"struct.lodepng::LodePNGICCCurve", ptr %259, i32 0, i32 9
  %261 = load float, ptr %260, align 8, !tbaa !119
  %262 = call float @llvm.fmuladd.f32(float %257, float %258, float %261)
  br label %263

263:                                              ; preds = %254, %237
  %264 = phi float [ %253, %237 ], [ %262, %254 ]
  store float %264, ptr %3, align 4
  br label %266

265:                                              ; preds = %226
  store float 0.000000e+00, ptr %3, align 4
  br label %266

266:                                              ; preds = %265, %263, %224, %192, %158, %148, %117, %107, %90, %15
  %267 = load float, ptr %3, align 4
  ret float %267
}