; Function Attrs: mustprogress nofree nosync nounwind willreturn memory(read, inaccessiblemem: none) uwtable
define internal fastcc noundef float @_ZN7lodepngL13iccForwardTRCEPKNS_15LodePNGICCCurveEf(ptr noundef nonnull readonly captures(none) %0, float noundef %1) unnamed_addr #15 {
  %3 = load i32, ptr %0, align 8, !tbaa !84
  switch i32 %3, label %116 [
    i32 0, label %117
    i32 1, label %4
    i32 2, label %32
    i32 3, label %38
    i32 4, label %56
    i32 5, label %77
    i32 6, label %94
  ]

4:                                                ; preds = %2
  %5 = getelementptr inbounds nuw i8, ptr %0, i64 8
  %6 = load ptr, ptr %5, align 8, !tbaa !66
  %.not = icmp eq ptr %6, null
  br i1 %.not, label %117, label %7

7:                                                ; preds = %4
  %8 = fcmp olt float %1, 0.000000e+00
  br i1 %8, label %117, label %9

9:                                                ; preds = %7
  %10 = getelementptr inbounds nuw i8, ptr %0, i64 16
  %11 = load i64, ptr %10, align 8, !tbaa !91
  %12 = add i64 %11, -1
  %13 = uitofp i64 %12 to float
  %14 = fmul float %1, %13
  %15 = fptoui float %14 to i64
  %.not79 = icmp ugt i64 %11, %15
  br i1 %.not79, label %16, label %117

16:                                               ; preds = %9
  %17 = getelementptr inbounds nuw float, ptr %6, i64 %15
  %18 = load float, ptr %17, align 4, !tbaa !79
  %19 = add nuw i64 %15, 1
  %20 = icmp ult i64 %19, %11
  br i1 %20, label %21, label %24

21:                                               ; preds = %16
  %22 = getelementptr inbounds nuw float, ptr %6, i64 %19
  %23 = load float, ptr %22, align 4, !tbaa !79
  br label %24

24:                                               ; preds = %16, %21
  %25 = phi float [ %23, %21 ], [ 1.000000e+00, %16 ]
  %26 = uitofp i64 %15 to float
  %27 = fneg float %26
  %28 = tail call float @llvm.fmuladd.f32(float %1, float %13, float %27)
  %29 = fsub float 1.000000e+00, %28
  %30 = fmul float %28, %25
  %31 = tail call float @llvm.fmuladd.f32(float %18, float %29, float %30)
  br label %117

32:                                               ; preds = %2
  %33 = fcmp ogt float %1, 0.000000e+00
  br i1 %33, label %34, label %117

34:                                               ; preds = %32
  %35 = getelementptr inbounds nuw i8, ptr %0, i64 24
  %36 = load float, ptr %35, align 8, !tbaa !90
  %37 = tail call fastcc noundef float @_ZN7lodepngL12lodepng_powfEff(float noundef %1, float noundef %36)
  br label %117

38:                                               ; preds = %2
  %39 = fcmp olt float %1, 0.000000e+00
  br i1 %39, label %117, label %40

40:                                               ; preds = %38
  %41 = getelementptr inbounds nuw i8, ptr %0, i64 32
  %42 = load float, ptr %41, align 8, !tbaa !94
  %43 = fneg float %42
  %44 = getelementptr inbounds nuw i8, ptr %0, i64 28
  %45 = load float, ptr %44, align 4, !tbaa !93
  %46 = fdiv float %43, %45
  %47 = fcmp ult float %1, %46
  br i1 %47, label %117, label %48

48:                                               ; preds = %40
  %49 = tail call float @llvm.fmuladd.f32(float %45, float %1, float %42)
  %50 = getelementptr inbounds nuw i8, ptr %0, i64 24
  %51 = load float, ptr %50, align 8, !tbaa !90
  %52 = tail call fastcc noundef float @_ZN7lodepngL12lodepng_powfEff(float noundef %49, float noundef %51)
  %53 = getelementptr inbounds nuw i8, ptr %0, i64 36
  %54 = load float, ptr %53, align 4, !tbaa !95
  %55 = fadd float %52, %54
  br label %117

56:                                               ; preds = %2
  %57 = fcmp olt float %1, 0.000000e+00
  br i1 %57, label %117, label %58

58:                                               ; preds = %56
  %59 = getelementptr inbounds nuw i8, ptr %0, i64 32
  %60 = load float, ptr %59, align 8, !tbaa !94
  %61 = fneg float %60
  %62 = getelementptr inbounds nuw i8, ptr %0, i64 28
  %63 = load float, ptr %62, align 4, !tbaa !93
  %64 = fdiv float %61, %63
  %65 = fcmp ult float %1, %64
  br i1 %65, label %74, label %66

66:                                               ; preds = %58
  %67 = tail call float @llvm.fmuladd.f32(float %63, float %1, float %60)
  %68 = getelementptr inbounds nuw i8, ptr %0, i64 24
  %69 = load float, ptr %68, align 8, !tbaa !90
  %70 = tail call fastcc noundef float @_ZN7lodepngL12lodepng_powfEff(float noundef %67, float noundef %69)
  %71 = getelementptr inbounds nuw i8, ptr %0, i64 36
  %72 = load float, ptr %71, align 4, !tbaa !95
  %73 = fadd float %70, %72
  br label %117

74:                                               ; preds = %58
  %75 = getelementptr inbounds nuw i8, ptr %0, i64 36
  %76 = load float, ptr %75, align 4, !tbaa !95
  br label %117

77:                                               ; preds = %2
  %78 = getelementptr inbounds nuw i8, ptr %0, i64 40
  %79 = load float, ptr %78, align 8, !tbaa !96
  %80 = fcmp ult float %1, %79
  br i1 %80, label %90, label %81

81:                                               ; preds = %77
  %82 = getelementptr inbounds nuw i8, ptr %0, i64 28
  %83 = load float, ptr %82, align 4, !tbaa !93
  %84 = getelementptr inbounds nuw i8, ptr %0, i64 32
  %85 = load float, ptr %84, align 8, !tbaa !94
  %86 = tail call float @llvm.fmuladd.f32(float %83, float %1, float %85)
  %87 = getelementptr inbounds nuw i8, ptr %0, i64 24
  %88 = load float, ptr %87, align 8, !tbaa !90
  %89 = tail call fastcc noundef float @_ZN7lodepngL12lodepng_powfEff(float noundef %86, float noundef %88)
  br label %117

90:                                               ; preds = %77
  %91 = getelementptr inbounds nuw i8, ptr %0, i64 36
  %92 = load float, ptr %91, align 4, !tbaa !95
  %93 = fmul float %1, %92
  br label %117

94:                                               ; preds = %2
  %95 = getelementptr inbounds nuw i8, ptr %0, i64 40
  %96 = load float, ptr %95, align 8, !tbaa !96
  %97 = fcmp ult float %1, %96
  br i1 %97, label %110, label %98

98:                                               ; preds = %94
  %99 = getelementptr inbounds nuw i8, ptr %0, i64 28
  %100 = load float, ptr %99, align 4, !tbaa !93
  %101 = getelementptr inbounds nuw i8, ptr %0, i64 32
  %102 = load float, ptr %101, align 8, !tbaa !94
  %103 = tail call float @llvm.fmuladd.f32(float %100, float %1, float %102)
  %104 = getelementptr inbounds nuw i8, ptr %0, i64 24
  %105 = load float, ptr %104, align 8, !tbaa !90
  %106 = tail call fastcc noundef float @_ZN7lodepngL12lodepng_powfEff(float noundef %103, float noundef %105)
  %107 = getelementptr inbounds nuw i8, ptr %0, i64 36
  %108 = load float, ptr %107, align 4, !tbaa !95
  %109 = fadd float %106, %108
  br label %117

110:                                              ; preds = %94
  %111 = getelementptr inbounds nuw i8, ptr %0, i64 36
  %112 = load float, ptr %111, align 4, !tbaa !95
  %113 = getelementptr inbounds nuw i8, ptr %0, i64 48
  %114 = load float, ptr %113, align 8, !tbaa !98
  %115 = tail call float @llvm.fmuladd.f32(float %112, float %1, float %114)
  br label %117

116:                                              ; preds = %2
  br label %117

117:                                              ; preds = %98, %110, %2, %81, %90, %66, %74, %56, %48, %40, %38, %34, %32, %24, %4, %7, %9, %116
  %.0 = phi float [ 0.000000e+00, %116 ], [ %1, %2 ], [ %31, %24 ], [ 0.000000e+00, %4 ], [ %1, %7 ], [ %1, %9 ], [ %37, %34 ], [ %1, %32 ], [ %1, %38 ], [ %55, %48 ], [ 0.000000e+00, %40 ], [ %1, %56 ], [ %73, %66 ], [ %76, %74 ], [ %89, %81 ], [ %93, %90 ], [ %109, %98 ], [ %115, %110 ]
  ret float %.0
}